; Function Attrs: mustprogress nofree nosync nounwind memory(readwrite, inaccessiblemem: none) uwtable
define noundef range(i32 -1, 1) i32 @_ZN3zmq15socket_poller_t9modify_fdEis(ptr noundef nonnull align 8 captures(none) dereferenceable(56) %0, i32 noundef %1, i16 noundef signext %2) local_unnamed_addr #13 align 2 {
  %4 = getelementptr inbounds nuw i8, ptr %0, i64 16
  %5 = load ptr, ptr %4, align 8, !tbaa !22
  %6 = getelementptr inbounds nuw i8, ptr %0, i64 24
  %7 = load ptr, ptr %6, align 8, !tbaa !22
  %.not4.i = icmp eq ptr %5, %7
  br i1 %.not4.i, label %_ZL8find_if2IN9__gnu_cxx17__normal_iteratorIPN3zmq15socket_poller_t6item_tESt6vectorIS4_SaIS4_EEEEiPFbRKS4_iEET_SE_SE_RKT0_T1_.exit, label %.lr.ph.i

.lr.ph.i:                                         ; preds = %3, %13
  %.sroa.01.05.i = phi ptr [ %14, %13 ], [ %5, %3 ]
  %8 = load ptr, ptr %.sroa.01.05.i, align 8, !tbaa !27
  %.not.i.i = icmp eq ptr %8, null
  %9 = getelementptr inbounds nuw i8, ptr %.sroa.01.05.i, i64 8
  %10 = load i32, ptr %9, align 8
  %11 = icmp eq i32 %10, %1
  %12 = select i1 %.not.i.i, i1 %11, i1 false
  br i1 %12, label %_ZL8find_if2IN9__gnu_cxx17__normal_iteratorIPN3zmq15socket_poller_t6item_tESt6vectorIS4_SaIS4_EEEEiPFbRKS4_iEET_SE_SE_RKT0_T1_.exit, label %13

13:                                               ; preds = %.lr.ph.i
  %14 = getelementptr inbounds nuw i8, ptr %.sroa.01.05.i, i64 32
  %.not.i = icmp eq ptr %14, %7
  br i1 %.not.i, label %_ZL8find_if2IN9__gnu_cxx17__normal_iteratorIPN3zmq15socket_poller_t6item_tESt6vectorIS4_SaIS4_EEEEiPFbRKS4_iEET_SE_SE_RKT0_T1_.exit, label %.lr.ph.i, !llvm.loop !52

_ZL8find_if2IN9__gnu_cxx17__normal_iteratorIPN3zmq15socket_poller_t6item_tESt6vectorIS4_SaIS4_EEEEiPFbRKS4_iEET_SE_SE_RKT0_T1_.exit: ; preds = %.lr.ph.i, %13, %3
  %.sroa.01.0.lcssa.i = phi ptr [ %5, %3 ], [ %14, %13 ], [ %.sroa.01.05.i, %.lr.ph.i ]
  %15 = icmp eq ptr %.sroa.01.0.lcssa.i, %7
  br i1 %15, label %16, label %18

16:                                               ; preds = %_ZL8find_if2IN9__gnu_cxx17__normal_iteratorIPN3zmq15socket_poller_t6item_tESt6vectorIS4_SaIS4_EEEEiPFbRKS4_iEET_SE_SE_RKT0_T1_.exit
  %17 = tail call ptr @__errno_location() #26
  store i32 22, ptr %17, align 4, !tbaa !32
  br label %21

18:                                               ; preds = %_ZL8find_if2IN9__gnu_cxx17__normal_iteratorIPN3zmq15socket_poller_t6item_tESt6vectorIS4_SaIS4_EEEEiPFbRKS4_iEET_SE_SE_RKT0_T1_.exit
  %19 = getelementptr inbounds nuw i8, ptr %.sroa.01.0.lcssa.i, i64 24
  store i16 %2, ptr %19, align 8, !tbaa !23
  %20 = getelementptr inbounds nuw i8, ptr %0, i64 40
  store i8 1, ptr %20, align 8, !tbaa !21
  br label %21

21:                                               ; preds = %18, %16
  %.0 = phi i32 [ -1, %16 ], [ 0, %18 ]
  ret i32 %.0
}